target datalayout = "e-m:e-p270:32:32-p271:32:32-p272:64:64-i64:64-i128:128-f80:128-n8:16:32:64-S128"
target triple = "x86_64-pc-linux-gnu"

%"class.std::__cxx11::basic_string" = type { %"struct.std::__cxx11::basic_string<char>::_Alloc_hider", i64, %union.anon }
%"struct.std::__cxx11::basic_string<char>::_Alloc_hider" = type { ptr }
%union.anon = type { i64, [8 x i8] }

@.str.32 = private unnamed_addr constant [15 x i8] c"(){}[]*+?|.^$\\\00", align 1
@.str.33 = private unnamed_addr constant [2 x i8] c"-\00", align 1
@.str.42 = private unnamed_addr constant [21 x i8] c"basic_string::append\00", align 1

; Function Attrs: mustprogress nounwind uwtable
define linkonce_odr noundef i64 @_ZNKSt15__new_allocatorIcE11_M_max_sizeEv(ptr noundef nonnull align 1 dereferenceable(1) %0) #1 comdat align 2 {
  %2 = alloca ptr, align 8
  store ptr %0, ptr %2, align 8, !tbaa !161
  ret i64 9223372036854775807
}

; Function Attrs: mustprogress nounwind uwtable
define linkonce_odr noundef i64 @_ZNKSt15__new_allocatorIcE8max_sizeEv(ptr noundef nonnull align 1 dereferenceable(1) %0) #1 comdat align 2 {
  %2 = alloca ptr, align 8
  store ptr %0, ptr %2, align 8, !tbaa !161
  %3 = load ptr, ptr %2, align 8
  %4 = call noundef i64 @_ZNKSt15__new_allocatorIcE11_M_max_sizeEv(ptr noundef nonnull align 1 dereferenceable(1) %3) #18
  ret i64 %4
}

; Function Attrs: noinline noreturn nounwind uwtable
define linkonce_odr hidden void @__clang_call_terminate(ptr noundef %0) #7 comdat {
  %2 = call ptr @__cxa_begin_catch(ptr %0) #18
  call void @_ZSt9terminatev() #19
  unreachable
}

; Function Attrs: mustprogress nounwind uwtable
define linkonce_odr noundef i64 @_ZNSt16allocator_traitsISaIcEE8max_sizeERKS0_(ptr noundef nonnull align 1 dereferenceable(1) %0) #1 comdat align 2 {
  %2 = alloca ptr, align 8
  store ptr %0, ptr %2, align 8, !tbaa !159
  %3 = load ptr, ptr %2, align 8, !tbaa !159
  %4 = call noundef i64 @_ZNKSt15__new_allocatorIcE8max_sizeEv(ptr noundef nonnull align 1 dereferenceable(1) %3) #18
  ret i64 %4
}

; Function Attrs: mustprogress nounwind uwtable
define available_externally noundef nonnull align 1 dereferenceable(1) ptr @_ZNKSt7__cxx1112basic_stringIcSt11char_traitsIcESaIcEE16_M_get_allocatorEv(ptr noundef nonnull align 8 dereferenceable(32) %0) #1 align 2 {
  %2 = alloca ptr, align 8
  store ptr %0, ptr %2, align 8, !tbaa !8
  %3 = load ptr, ptr %2, align 8
  %4 = getelementptr inbounds nuw %"class.std::__cxx11::basic_string", ptr %3, i32 0, i32 0
  ret ptr %4
}

; Function Attrs: mustprogress nounwind uwtable
define available_externally noundef i64 @_ZNKSt7__cxx1112basic_stringIcSt11char_traitsIcESaIcEE8max_sizeEv(ptr noundef nonnull align 8 dereferenceable(32) %0) #1 align 2 personality ptr @__gxx_personality_v0 {
  %2 = alloca ptr, align 8
  store ptr %0, ptr %2, align 8, !tbaa !8
  %3 = load ptr, ptr %2, align 8
  %4 = invoke noundef nonnull align 1 dereferenceable(1) ptr @_ZNKSt7__cxx1112basic_stringIcSt11char_traitsIcESaIcEE16_M_get_allocatorEv(ptr noundef nonnull align 8 dereferenceable(32) %3)
          to label %5 unwind label %9

5:                                                ; preds = %1
  %6 = call noundef i64 @_ZNSt16allocator_traitsISaIcEE8max_sizeERKS0_(ptr noundef nonnull align 1 dereferenceable(1) %4) #18
  %7 = sub i64 %6, 1
  %8 = udiv i64 %7, 2
  ret i64 %8

9:                                                ; preds = %1
  %10 = landingpad { ptr, i32 }
          catch ptr null
  %11 = extractvalue { ptr, i32 } %10, 0
  call void @__clang_call_terminate(ptr %11) #19
  unreachable
}

; Function Attrs: mustprogress uwtable
define available_externally void @_ZNKSt7__cxx1112basic_stringIcSt11char_traitsIcESaIcEE15_M_check_lengthEmmPKc(ptr noundef nonnull align 8 dereferenceable(32) %0, i64 noundef %1, i64 noundef %2, ptr noundef %3) #0 align 2 {
  %5 = alloca ptr, align 8
  %6 = alloca i64, align 8
  %7 = alloca i64, align 8
  %8 = alloca ptr, align 8
  store ptr %0, ptr %5, align 8, !tbaa !8
  store i64 %1, ptr %6, align 8, !tbaa !42
  store i64 %2, ptr %7, align 8, !tbaa !42
  store ptr %3, ptr %8, align 8, !tbaa !35
  %9 = load ptr, ptr %5, align 8
  %10 = call noundef i64 @_ZNKSt7__cxx1112basic_stringIcSt11char_traitsIcESaIcEE8max_sizeEv(ptr noundef nonnull align 8 dereferenceable(32) %9) #18
  %11 = call noundef i64 @_ZNKSt7__cxx1112basic_stringIcSt11char_traitsIcESaIcEE4sizeEv(ptr noundef nonnull align 8 dereferenceable(32) %9) #18
  %12 = load i64, ptr %6, align 8, !tbaa !42
  %13 = sub i64 %11, %12
  %14 = sub i64 %10, %13
  %15 = load i64, ptr %7, align 8, !tbaa !42
  %16 = icmp ult i64 %14, %15
  br i1 %16, label %17, label %19

17:                                               ; preds = %4
  %18 = load ptr, ptr %8, align 8, !tbaa !35
  call void @_ZSt20__throw_length_errorPKc(ptr noundef %18) #20
  unreachable

19:                                               ; preds = %4
  ret void
}

; Function Attrs: mustprogress nounwind uwtable
define linkonce_odr noundef i64 @_ZNSt11char_traitsIcE6lengthEPKc(ptr noundef %0) #1 comdat align 2 {
  %2 = alloca ptr, align 8
  store ptr %0, ptr %2, align 8, !tbaa !35
  %3 = load ptr, ptr %2, align 8, !tbaa !35
  %4 = call i64 @strlen(ptr noundef %3) #18
  ret i64 %4
}

; Function Attrs: mustprogress uwtable
define available_externally noundef nonnull align 8 dereferenceable(32) ptr @_ZNSt7__cxx1112basic_stringIcSt11char_traitsIcESaIcEE6appendEPKc(ptr noundef nonnull align 8 dereferenceable(32) %0, ptr noundef %1) #0 align 2 {
  %3 = alloca ptr, align 8
  %4 = alloca ptr, align 8
  %5 = alloca i64, align 8
  store ptr %0, ptr %3, align 8, !tbaa !8
  store ptr %1, ptr %4, align 8, !tbaa !35
  %6 = load ptr, ptr %3, align 8
  call void @llvm.lifetime.start.p0(i64 8, ptr %5) #18
  %7 = load ptr, ptr %4, align 8, !tbaa !35
  %8 = call noundef i64 @_ZNSt11char_traitsIcE6lengthEPKc(ptr noundef %7)
  store i64 %8, ptr %5, align 8, !tbaa !42
  %9 = load i64, ptr %5, align 8, !tbaa !42
  call void @_ZNKSt7__cxx1112basic_stringIcSt11char_traitsIcESaIcEE15_M_check_lengthEmmPKc(ptr noundef nonnull align 8 dereferenceable(32) %6, i64 noundef 0, i64 noundef %9, ptr noundef @.str.42)
  %10 = load ptr, ptr %4, align 8, !tbaa !35
  %11 = load i64, ptr %5, align 8, !tbaa !42
  %12 = call noundef nonnull align 8 dereferenceable(32) ptr @_ZNSt7__cxx1112basic_stringIcSt11char_traitsIcESaIcEE9_M_appendEPKcm(ptr noundef nonnull align 8 dereferenceable(32) %6, ptr noundef %10, i64 noundef %11)
  call void @llvm.lifetime.end.p0(i64 8, ptr %5) #18
  ret ptr %12
}

; Function Attrs: mustprogress nounwind uwtable
define available_externally noundef i64 @_ZNKSt7__cxx1112basic_stringIcSt11char_traitsIcESaIcEE4sizeEv(ptr noundef nonnull align 8 dereferenceable(32) %0) #1 align 2 {
  %2 = alloca ptr, align 8
  store ptr %0, ptr %2, align 8, !tbaa !8
  %3 = load ptr, ptr %2, align 8
  %4 = getelementptr inbounds nuw %"class.std::__cxx11::basic_string", ptr %3, i32 0, i32 1
  %5 = load i64, ptr %4, align 8, !tbaa !75
  ret i64 %5
}

; Function Attrs: mustprogress uwtable
define internal void @_ZN10duckdb_re2L13AppendCCRangeEPNSt7__cxx1112basic_stringIcSt11char_traitsIcESaIcEEEii(ptr noundef %0, i32 noundef %1, i32 noundef %2) #0 {
  %4 = alloca ptr, align 8
  %5 = alloca i32, align 4
  %6 = alloca i32, align 4
  store ptr %0, ptr %4, align 8, !tbaa !8
  store i32 %1, ptr %5, align 4, !tbaa !30
  store i32 %2, ptr %6, align 4, !tbaa !30
  %7 = load i32, ptr %5, align 4, !tbaa !30
  %8 = load i32, ptr %6, align 4, !tbaa !30
  %9 = icmp sgt i32 %7, %8
  br i1 %9, label %10, label %11

10:                                               ; preds = %3
  br label %22

11:                                               ; preds = %3
  %12 = load ptr, ptr %4, align 8, !tbaa !8
  %13 = load i32, ptr %5, align 4, !tbaa !30
  call void @_ZN10duckdb_re2L12AppendCCCharEPNSt7__cxx1112basic_stringIcSt11char_traitsIcESaIcEEEi(ptr noundef %12, i32 noundef %13)
  %14 = load i32, ptr %5, align 4, !tbaa !30
  %15 = load i32, ptr %6, align 4, !tbaa !30
  %16 = icmp slt i32 %14, %15
  br i1 %16, label %17, label %22

17:                                               ; preds = %11
  %18 = load ptr, ptr %4, align 8, !tbaa !8
  %19 = call noundef nonnull align 8 dereferenceable(32) ptr @_ZNSt7__cxx1112basic_stringIcSt11char_traitsIcESaIcEE6appendEPKc(ptr noundef nonnull align 8 dereferenceable(32) %18, ptr noundef @.str.33)
  %20 = load ptr, ptr %4, align 8, !tbaa !8
  %21 = load i32, ptr %6, align 4, !tbaa !30
  call void @_ZN10duckdb_re2L12AppendCCCharEPNSt7__cxx1112basic_stringIcSt11char_traitsIcESaIcEEEi(ptr noundef %20, i32 noundef %21)
  br label %22

22:                                               ; preds = %10, %17, %11
  ret void
}

; Function Attrs: mustprogress uwtable
define available_externally noundef nonnull align 8 dereferenceable(32) ptr @_ZNSt7__cxx1112basic_stringIcSt11char_traitsIcESaIcEE6appendEmc(ptr noundef nonnull align 8 dereferenceable(32) %0, i64 noundef %1, i8 noundef signext %2) #0 align 2 {
  %4 = alloca ptr, align 8
  %5 = alloca i64, align 8
  %6 = alloca i8, align 1
  store ptr %0, ptr %4, align 8, !tbaa !8
  store i64 %1, ptr %5, align 8, !tbaa !42
  store i8 %2, ptr %6, align 1, !tbaa !43
  %7 = load ptr, ptr %4, align 8
  %8 = call noundef i64 @_ZNKSt7__cxx1112basic_stringIcSt11char_traitsIcESaIcEE4sizeEv(ptr noundef nonnull align 8 dereferenceable(32) %7) #18
  %9 = load i64, ptr %5, align 8, !tbaa !42
  %10 = load i8, ptr %6, align 1, !tbaa !43
  %11 = call noundef nonnull align 8 dereferenceable(32) ptr @_ZNSt7__cxx1112basic_stringIcSt11char_traitsIcESaIcEE14_M_replace_auxEmmmc(ptr noundef nonnull align 8 dereferenceable(32) %7, i64 noundef %8, i64 noundef 0, i64 noundef %9, i8 noundef signext %10)
  ret ptr %11
}

; Function Attrs: mustprogress uwtable
define internal void @_ZN10duckdb_re2L13AppendLiteralEPNSt7__cxx1112basic_stringIcSt11char_traitsIcESaIcEEEib(ptr noundef %0, i32 noundef %1, i1 noundef zeroext %2) #0 {
  %4 = alloca ptr, align 8
  %5 = alloca i32, align 4
  %6 = alloca i8, align 1
  store ptr %0, ptr %4, align 8, !tbaa !8
  store i32 %1, ptr %5, align 4, !tbaa !30
  %7 = zext i1 %2 to i8
  store i8 %7, ptr %6, align 1, !tbaa !71
  %8 = load i32, ptr %5, align 4, !tbaa !30
  %9 = icmp ne i32 %8, 0
  br i1 %9, label %10, label %24

10:                                               ; preds = %3
  %11 = load i32, ptr %5, align 4, !tbaa !30
  %12 = icmp slt i32 %11, 128
  br i1 %12, label %13, label %24

13:                                               ; preds = %10
  %14 = load i32, ptr %5, align 4, !tbaa !30
  %15 = call noundef ptr @strchr(ptr noundef @.str.32, i32 noundef %14) #21
  %16 = icmp ne ptr %15, null
  br i1 %16, label %17, label %24

17:                                               ; preds = %13
  %18 = load ptr, ptr %4, align 8, !tbaa !8
  %19 = call noundef nonnull align 8 dereferenceable(32) ptr @_ZNSt7__cxx1112basic_stringIcSt11char_traitsIcESaIcEE6appendEmc(ptr noundef nonnull align 8 dereferenceable(32) %18, i64 noundef 1, i8 noundef signext 92)
  %20 = load ptr, ptr %4, align 8, !tbaa !8
  %21 = load i32, ptr %5, align 4, !tbaa !30
  %22 = trunc i32 %21 to i8
  %23 = call noundef nonnull align 8 dereferenceable(32) ptr @_ZNSt7__cxx1112basic_stringIcSt11char_traitsIcESaIcEE6appendEmc(ptr noundef nonnull align 8 dereferenceable(32) %20, i64 noundef 1, i8 noundef signext %22)
  br label %57

24:                                               ; preds = %13, %10, %3
  %25 = load i8, ptr %6, align 1, !tbaa !71, !range !33, !noundef !34
  %26 = trunc i8 %25 to i1
  br i1 %26, label %27, label %52

27:                                               ; preds = %24
  %28 = load i32, ptr %5, align 4, !tbaa !30
  %29 = icmp sle i32 97, %28
  br i1 %29, label %30, label %52

30:                                               ; preds = %27
  %31 = load i32, ptr %5, align 4, !tbaa !30
  %32 = icmp sle i32 %31, 122
  br i1 %32, label %33, label %52

33:                                               ; preds = %30
  %34 = load i32, ptr %5, align 4, !tbaa !30
  %35 = sub nsw i32 %34, 32
  store i32 %35, ptr %5, align 4, !tbaa !30
  %36 = load ptr, ptr %4, align 8, !tbaa !8
  %37 = call noundef nonnull align 8 dereferenceable(32) ptr @_ZNSt7__cxx1112basic_stringIcSt11char_traitsIcESaIcEE6appendEmc(ptr noundef nonnull align 8 dereferenceable(32) %36, i64 noundef 1, i8 noundef signext 91)
  %38 = load ptr, ptr %4, align 8, !tbaa !8
  %39 = load i32, ptr %5, align 4, !tbaa !30
  %40 = trunc i32 %39 to i8
  %41 = call noundef nonnull align 8 dereferenceable(32) ptr @_ZNSt7__cxx1112basic_stringIcSt11char_traitsIcESaIcEE6appendEmc(ptr noundef nonnull align 8 dereferenceable(32) %38, i64 noundef 1, i8 noundef signext %40)
  %42 = load ptr, ptr %4, align 8, !tbaa !8
  %43 = load i32, ptr %5, align 4, !tbaa !30
  %44 = trunc i32 %43 to i8
  %45 = sext i8 %44 to i32
  %46 = add nsw i32 %45, 97
  %47 = sub nsw i32 %46, 65
  %48 = trunc i32 %47 to i8
  %49 = call noundef nonnull align 8 dereferenceable(32) ptr @_ZNSt7__cxx1112basic_stringIcSt11char_traitsIcESaIcEE6appendEmc(ptr noundef nonnull align 8 dereferenceable(32) %42, i64 noundef 1, i8 noundef signext %48)
  %50 = load ptr, ptr %4, align 8, !tbaa !8
  %51 = call noundef nonnull align 8 dereferenceable(32) ptr @_ZNSt7__cxx1112basic_stringIcSt11char_traitsIcESaIcEE6appendEmc(ptr noundef nonnull align 8 dereferenceable(32) %50, i64 noundef 1, i8 noundef signext 93)
  br label %56

52:                                               ; preds = %30, %27, %24
  %53 = load ptr, ptr %4, align 8, !tbaa !8
  %54 = load i32, ptr %5, align 4, !tbaa !30
  %55 = load i32, ptr %5, align 4, !tbaa !30
  call void @_ZN10duckdb_re2L13AppendCCRangeEPNSt7__cxx1112basic_stringIcSt11char_traitsIcESaIcEEEii(ptr noundef %53, i32 noundef %54, i32 noundef %55)
  br label %56

56:                                               ; preds = %52, %33
  br label %57

57:                                               ; preds = %56, %17
  ret void
}