; Function Attrs: mustprogress uwtable
define internal fastcc void @_ZN10duckdb_re2L13AppendLiteralEPNSt7__cxx1112basic_stringIcSt11char_traitsIcESaIcEEEib(ptr noundef %0, i32 noundef %1, i1 noundef zeroext %2) unnamed_addr #0 personality ptr @__gxx_personality_v0 {
  %4 = icmp ne i32 %1, 0
  %5 = icmp slt i32 %1, 128
  %or.cond = and i1 %4, %5
  br i1 %or.cond, label %6, label %14

6:                                                ; preds = %3
  %memchr = tail call ptr @memchr(ptr noundef nonnull dereferenceable(1) @.str.32, i32 %1, i64 15)
  %.not = icmp eq ptr %memchr, null
  br i1 %.not, label %14, label %7

7:                                                ; preds = %6
  %8 = getelementptr inbounds nuw i8, ptr %0, i64 8
  %9 = load i64, ptr %8, align 8, !tbaa !9
  %10 = tail call noundef nonnull align 8 dereferenceable(32) ptr @_ZNSt7__cxx1112basic_stringIcSt11char_traitsIcESaIcEE14_M_replace_auxEmmmc(ptr noundef nonnull align 8 dereferenceable(32) %0, i64 noundef %9, i64 noundef 0, i64 noundef 1, i8 noundef signext 92)
  %11 = trunc i32 %1 to i8
  %12 = load i64, ptr %8, align 8, !tbaa !9
  %13 = tail call noundef nonnull align 8 dereferenceable(32) ptr @_ZNSt7__cxx1112basic_stringIcSt11char_traitsIcESaIcEE14_M_replace_auxEmmmc(ptr noundef nonnull align 8 dereferenceable(32) %0, i64 noundef %12, i64 noundef 0, i64 noundef 1, i8 noundef signext %11)
  br label %30

14:                                               ; preds = %6, %3
  %15 = add i32 %1, -97
  %16 = icmp ult i32 %15, 26
  %or.cond5 = and i1 %2, %16
  br i1 %or.cond5, label %17, label %29

17:                                               ; preds = %14
  %18 = getelementptr inbounds nuw i8, ptr %0, i64 8
  %19 = load i64, ptr %18, align 8, !tbaa !9
  %20 = tail call noundef nonnull align 8 dereferenceable(32) ptr @_ZNSt7__cxx1112basic_stringIcSt11char_traitsIcESaIcEE14_M_replace_auxEmmmc(ptr noundef nonnull align 8 dereferenceable(32) %0, i64 noundef %19, i64 noundef 0, i64 noundef 1, i8 noundef signext 91)
  %21 = trunc nuw i32 %1 to i8
  %22 = add nsw i8 %21, -32
  %23 = load i64, ptr %18, align 8, !tbaa !9
  %24 = tail call noundef nonnull align 8 dereferenceable(32) ptr @_ZNSt7__cxx1112basic_stringIcSt11char_traitsIcESaIcEE14_M_replace_auxEmmmc(ptr noundef nonnull align 8 dereferenceable(32) %0, i64 noundef %23, i64 noundef 0, i64 noundef 1, i8 noundef signext %22)
  %25 = load i64, ptr %18, align 8, !tbaa !9
  %26 = tail call noundef nonnull align 8 dereferenceable(32) ptr @_ZNSt7__cxx1112basic_stringIcSt11char_traitsIcESaIcEE14_M_replace_auxEmmmc(ptr noundef nonnull align 8 dereferenceable(32) %0, i64 noundef %25, i64 noundef 0, i64 noundef 1, i8 noundef signext %21)
  %27 = load i64, ptr %18, align 8, !tbaa !9
  %28 = tail call noundef nonnull align 8 dereferenceable(32) ptr @_ZNSt7__cxx1112basic_stringIcSt11char_traitsIcESaIcEE14_M_replace_auxEmmmc(ptr noundef nonnull align 8 dereferenceable(32) %0, i64 noundef %27, i64 noundef 0, i64 noundef 1, i8 noundef signext 93)
  br label %30

29:                                               ; preds = %14
  tail call fastcc void @_ZN10duckdb_re2L12AppendCCCharEPNSt7__cxx1112basic_stringIcSt11char_traitsIcESaIcEEEi(ptr noundef %0, i32 noundef %1)
  br label %30

30:                                               ; preds = %17, %29, %7
  ret void
}